target datalayout = "e-m:e-p270:32:32-p271:32:32-p272:64:64-i64:64-i128:128-f80:128-n8:16:32:64-S128"
target triple = "x86_64-pc-linux-gnu"

%struct.Font = type { i32, i32, i32, %struct.Texture, ptr, ptr }
%struct.Texture = type { i32, i32, i32, i32, i32 }
%struct.Vector2 = type { float, float }

@defaultFont = internal global %struct.Font zeroinitializer, align 8

; Function Attrs: nounwind uwtable
define void @GetFontDefault(ptr dead_on_unwind noalias writable sret(%struct.Font) align 8 %0) #0 {
  call void @llvm.memcpy.p0.p0.i64(ptr align 8 %0, ptr align 8 @defaultFont, i64 48, i1 false)
  ret void
}

; Function Attrs: nounwind uwtable
define i32 @MeasureText(ptr noundef %0, i32 noundef %1) #3 {
  %3 = alloca ptr, align 8
  %4 = alloca i32, align 4
  %5 = alloca %struct.Vector2, align 4
  %6 = alloca %struct.Font, align 8
  %7 = alloca i32, align 4
  %8 = alloca i32, align 4
  %9 = alloca %struct.Vector2, align 4
  %10 = alloca %struct.Font, align 8
  store ptr %0, ptr %3, align 8
  store i32 %1, ptr %4, align 4
  call void @llvm.lifetime.start.p0(i64 8, ptr %5) #13
  call void @llvm.memset.p0.i64(ptr align 4 %5, i8 0, i64 8, i1 false)
  call void @GetFontDefault(ptr dead_on_unwind writable sret(%struct.Font) align 8 %6)
  %11 = getelementptr inbounds nuw %struct.Font, ptr %6, i32 0, i32 3
  %12 = getelementptr inbounds nuw %struct.Texture, ptr %11, i32 0, i32 0
  %13 = load i32, ptr %12, align 4
  %14 = icmp ne i32 %13, 0
  br i1 %14, label %15, label %31

15:                                               ; preds = %2
  call void @llvm.lifetime.start.p0(i64 4, ptr %7) #13
  store i32 10, ptr %7, align 4
  %16 = load i32, ptr %4, align 4
  %17 = load i32, ptr %7, align 4
  %18 = icmp slt i32 %16, %17
  br i1 %18, label %19, label %21

19:                                               ; preds = %15
  %20 = load i32, ptr %7, align 4
  store i32 %20, ptr %4, align 4
  br label %21

21:                                               ; preds = %19, %15
  call void @llvm.lifetime.start.p0(i64 4, ptr %8) #13
  %22 = load i32, ptr %4, align 4
  %23 = load i32, ptr %7, align 4
  %24 = sdiv i32 %22, %23
  store i32 %24, ptr %8, align 4
  call void @llvm.lifetime.start.p0(i64 8, ptr %9) #13
  call void @GetFontDefault(ptr dead_on_unwind writable sret(%struct.Font) align 8 %10)
  %25 = load ptr, ptr %3, align 8
  %26 = load i32, ptr %4, align 4
  %27 = sitofp i32 %26 to float
  %28 = load i32, ptr %8, align 4
  %29 = sitofp i32 %28 to float
  %30 = call <2 x float> @MeasureTextEx(ptr noundef byval(%struct.Font) align 8 %10, ptr noundef %25, float noundef %27, float noundef %29)
  store <2 x float> %30, ptr %9, align 4
  call void @llvm.memcpy.p0.p0.i64(ptr align 4 %5, ptr align 4 %9, i64 8, i1 false)
  call void @llvm.lifetime.end.p0(i64 8, ptr %9) #13
  call void @llvm.lifetime.end.p0(i64 4, ptr %8) #13
  call void @llvm.lifetime.end.p0(i64 4, ptr %7) #13
  br label %31

31:                                               ; preds = %21, %2
  %32 = getelementptr inbounds nuw %struct.Vector2, ptr %5, i32 0, i32 0
  %33 = load float, ptr %32, align 4
  %34 = fptosi float %33 to i32
  call void @llvm.lifetime.end.p0(i64 8, ptr %5) #13
  ret i32 %34
}