; Function Attrs: nofree norecurse nosync nounwind memory(read, inaccessiblemem: none) uwtable
define i32 @MeasureText(ptr noundef captures(address_is_null) %0, i32 noundef %1) local_unnamed_addr #24 {
  %.sroa.1.0.copyload = load i32, ptr getelementptr inbounds nuw (i8, ptr @defaultFont, i64 12), align 4
  %.not = icmp eq i32 %.sroa.1.0.copyload, 0
  br i1 %.not, label %8, label %3

3:                                                ; preds = %2
  %spec.select = tail call i32 @llvm.smax.i32(i32 %1, i32 10)
  %4 = udiv i32 %spec.select, 10
  %5 = uitofp nneg i32 %spec.select to float
  %6 = uitofp nneg i32 %4 to float
  %7 = tail call <2 x float> @MeasureTextEx(ptr noundef nonnull byval(%struct.Font) align 8 @defaultFont, ptr noundef %0, float noundef %5, float noundef %6)
  br label %8

8:                                                ; preds = %3, %2
  %.sroa.04.0 = phi <2 x float> [ %7, %3 ], [ zeroinitializer, %2 ]
  %.sroa.04.0.vec.extract = extractelement <2 x float> %.sroa.04.0, i64 0
  %9 = fptosi float %.sroa.04.0.vec.extract to i32
  ret i32 %9
}